; Function Attrs: mustprogress uwtable
define void @_ZN6icu_7521SameValueSubstitutionC2EiPKNS_9NFRuleSetERKNS_13UnicodeStringER10UErrorCode(ptr noundef nonnull align 8 dereferenceable(32) %this, i32 noundef %_pos, ptr noundef %_ruleSet, ptr noundef nonnull align 8 dereferenceable(64) %description, ptr noundef nonnull align 4 dereferenceable(4) %status) unnamed_addr #2 align 2 personality ptr @__gxx_personality_v0 {
entry:
  tail call void @_ZN6icu_7514NFSubstitutionC2EiPKNS_9NFRuleSetERKNS_13UnicodeStringER10UErrorCode(ptr noundef nonnull align 8 dereferenceable(32) %this, i32 noundef %_pos, ptr noundef %_ruleSet, ptr noundef nonnull align 8 dereferenceable(64) %description, ptr noundef nonnull align 4 dereferenceable(4) %status)
  store ptr getelementptr inbounds ({ [17 x ptr] }, ptr @_ZTVN6icu_7521SameValueSubstitutionE, i64 0, i32 0, i64 2), ptr %this, align 8
  %fUnion.i.i.i = getelementptr inbounds i8, ptr %description, i64 8
  %0 = load i16, ptr %fUnion.i.i.i, align 8
  %cmp.i.i.i = icmp slt i16 %0, 0
  %1 = ashr i16 %0, 5
  %shr.i.i.i = sext i16 %1 to i32
  %fLength.i.i = getelementptr inbounds i8, ptr %description, i64 12
  %2 = load i32, ptr %fLength.i.i, align 4
  %cond.i.i = select i1 %cmp.i.i.i, i32 %2, i32 %shr.i.i.i
  %call3.i3 = invoke noundef signext i8 @_ZNK6icu_7513UnicodeString9doCompareEiiPKDsii(ptr noundef nonnull align 8 dereferenceable(64) %description, i32 noundef 0, i32 noundef %cond.i.i, ptr noundef nonnull @_ZL13gEqualsEquals, i32 noundef 0, i32 noundef 2)
          to label %invoke.cont3 unwind label %lpad2

invoke.cont3:                                     ; preds = %entry
  %cmp = icmp eq i8 %call3.i3, 0
  tail call void asm sideeffect "", "rm,~{memory},~{dirflag},~{fpsr},~{flags}"(ptr nonnull @_ZL13gEqualsEquals) #11, !srcloc !7
  br i1 %cmp, label %if.then, label %if.end

if.then:                                          ; preds = %invoke.cont3
  store i32 9, ptr %status, align 4
  br label %if.end

lpad2:                                            ; preds = %entry
  %3 = landingpad { ptr, i32 }
          cleanup
  tail call void asm sideeffect "", "rm,~{memory},~{dirflag},~{fpsr},~{flags}"(ptr nonnull @_ZL13gEqualsEquals) #11, !srcloc !7
  tail call void @_ZN6icu_7514NFSubstitutionD2Ev(ptr noundef nonnull align 8 dereferenceable(32) %this) #11
  resume { ptr, i32 } %3

if.end:                                           ; preds = %if.then, %invoke.cont3
  ret void
}